#include <math.h>
#include <stdio.h>
#include <stdlib.h>
#include <string.h>


int main()
{
	int n,i,len,zzz,m;
	scanf("%d",&n);
	char a[30];
	for(i=0;i<n;i++){
		scanf("%s",a);
		len=strlen(a);
		if(a[len-1]=='g')  zzz=len-4;
		else  zzz=len-3;
		for(m=0;m<=zzz;m++) printf("%c",a[m]);
		printf("\n");
	}

	return 0;
}