; ModuleID = 'source-C-CXX/56/1808.c'
source_filename = "source-C-CXX/56/1808.c"
target datalayout = "e-m:e-p270:32:32-p271:32:32-p272:64:64-i64:64-f80:128-n8:16:32:64-S128"
target triple = "x86_64-pc-linux-gnu"

@.str = private unnamed_addr constant [3 x i8] c"%d\00", align 1
@.str.1 = private unnamed_addr constant [3 x i8] c"%s\00", align 1

; Function Attrs: nofree nounwind sspstrong uwtable
define dso_local i32 @main() local_unnamed_addr #0 {
  %1 = alloca i32, align 4
  %2 = alloca [30 x i8], align 16
  %3 = bitcast i32* %1 to i8*
  call void @llvm.lifetime.start.p0i8(i64 4, i8* nonnull %3) #5
  %4 = call i32 (i8*, ...) @__isoc99_scanf(i8* getelementptr inbounds ([3 x i8], [3 x i8]* @.str, i64 0, i64 0), i32* nonnull %1)
  %5 = getelementptr inbounds [30 x i8], [30 x i8]* %2, i64 0, i64 0
  call void @llvm.lifetime.start.p0i8(i64 30, i8* nonnull %5) #5
  %6 = load i32, i32* %1, align 4, !tbaa !5
  %7 = icmp sgt i32 %6, 0
  br i1 %7, label %8, label %39

8:                                                ; preds = %0, %34
  %9 = phi i32 [ %36, %34 ], [ 0, %0 ]
  %10 = call i32 (i8*, ...) @__isoc99_scanf(i8* getelementptr inbounds ([3 x i8], [3 x i8]* @.str.1, i64 0, i64 0), i8* nonnull %5)
  %11 = call i64 @strlen(i8* noundef nonnull %5) #6
  %12 = trunc i64 %11 to i32
  %13 = shl i64 %11, 32
  %14 = add i64 %13, -4294967296
  %15 = ashr exact i64 %14, 32
  %16 = getelementptr inbounds [30 x i8], [30 x i8]* %2, i64 0, i64 %15
  %17 = load i8, i8* %16, align 1, !tbaa !9
  %18 = icmp eq i8 %17, 103
  %19 = select i1 %18, i32 -4, i32 -3
  %20 = add nsw i32 %19, %12
  %21 = icmp slt i32 %20, 0
  br i1 %21, label %34, label %22

22:                                               ; preds = %8
  %23 = add nuw nsw i32 %19, 1
  %24 = add i32 %23, %12
  %25 = zext i32 %24 to i64
  br label %26

26:                                               ; preds = %22, %26
  %27 = phi i64 [ 0, %22 ], [ %32, %26 ]
  %28 = getelementptr inbounds [30 x i8], [30 x i8]* %2, i64 0, i64 %27
  %29 = load i8, i8* %28, align 1, !tbaa !9
  %30 = sext i8 %29 to i32
  %31 = call i32 @putchar(i32 %30)
  %32 = add nuw nsw i64 %27, 1
  %33 = icmp eq i64 %32, %25
  br i1 %33, label %34, label %26, !llvm.loop !10

34:                                               ; preds = %26, %8
  %35 = call i32 @putchar(i32 10)
  %36 = add nuw nsw i32 %9, 1
  %37 = load i32, i32* %1, align 4, !tbaa !5
  %38 = icmp slt i32 %36, %37
  br i1 %38, label %8, label %39, !llvm.loop !12

39:                                               ; preds = %34, %0
  call void @llvm.lifetime.end.p0i8(i64 30, i8* nonnull %5) #5
  call void @llvm.lifetime.end.p0i8(i64 4, i8* nonnull %3) #5
  ret i32 0
}

; Function Attrs: argmemonly mustprogress nofree nosync nounwind willreturn
declare void @llvm.lifetime.start.p0i8(i64 immarg, i8* nocapture) #1

; Function Attrs: nofree nounwind
declare noundef i32 @__isoc99_scanf(i8* nocapture noundef readonly, ...) local_unnamed_addr #2

; Function Attrs: argmemonly mustprogress nofree nounwind readonly willreturn
declare i64 @strlen(i8* nocapture) local_unnamed_addr #3

; Function Attrs: argmemonly mustprogress nofree nosync nounwind willreturn
declare void @llvm.lifetime.end.p0i8(i64 immarg, i8* nocapture) #1

; Function Attrs: nofree nounwind
declare noundef i32 @putchar(i32 noundef) local_unnamed_addr #4


!llvm.module.flags = !{!0, !1, !2, !3}
!llvm.ident = !{!4}

!0 = !{i32 1, !"wchar_size", i32 4}
!1 = !{i32 7, !"PIC Level", i32 2}
!2 = !{i32 7, !"PIE Level", i32 2}
!3 = !{i32 7, !"uwtable", i32 1}
!4 = !{!"clang version 13.0.0"}
!5 = !{!6, !6, i64 0}
!6 = !{!"int", !7, i64 0}
!7 = !{!"omnipotent char", !8, i64 0}
!8 = !{!"Simple C/C++ TBAA"}
!9 = !{!7, !7, i64 0}
!10 = distinct !{!10, !11}
!11 = !{!"llvm.loop.mustprogress"}
!12 = distinct !{!12, !11}
